target datalayout = "e-m:e-p270:32:32-p271:32:32-p272:64:64-i64:64-i128:128-f80:128-n8:16:32:64-S128"
target triple = "x86_64-pc-linux-gnu"

%struct.gz_state = type { i32, i32, ptr, i64, i32, i32, ptr, ptr, ptr, i32, i32, i64, i64, i32, i32, i32, i32, i64, i32, i32, ptr, %struct.z_stream_s }
%struct.z_stream_s = type { ptr, i32, i64, ptr, i32, i64, ptr, ptr, ptr, ptr, ptr, i32, i64, i64 }

@.str.1 = private unnamed_addr constant [14 x i8] c"out of memory\00", align 1
@.str.2 = private unnamed_addr constant [6 x i8] c"1.2.5\00", align 1

; Function Attrs: nounwind uwtable
define internal i32 @gz_init(ptr noundef %0) #0 {
  %2 = alloca i32, align 4
  %3 = alloca ptr, align 8
  %4 = alloca i32, align 4
  %5 = alloca ptr, align 8
  %6 = alloca i32, align 4
  store ptr %0, ptr %3, align 8, !tbaa !3
  call void @llvm.lifetime.start.p0(i64 4, ptr %4) #10
  call void @llvm.lifetime.start.p0(i64 8, ptr %5) #10
  %7 = load ptr, ptr %3, align 8, !tbaa !3
  %8 = getelementptr inbounds nuw %struct.gz_state, ptr %7, i32 0, i32 21
  store ptr %8, ptr %5, align 8, !tbaa !9
  %9 = load ptr, ptr %3, align 8, !tbaa !3
  %10 = getelementptr inbounds nuw %struct.gz_state, ptr %9, i32 0, i32 5
  %11 = load i32, ptr %10, align 4, !tbaa !27
  %12 = zext i32 %11 to i64
  %13 = call noalias ptr @malloc(i64 noundef %12) #11
  %14 = load ptr, ptr %3, align 8, !tbaa !3
  %15 = getelementptr inbounds nuw %struct.gz_state, ptr %14, i32 0, i32 6
  store ptr %13, ptr %15, align 8, !tbaa !22
  %16 = load ptr, ptr %3, align 8, !tbaa !3
  %17 = getelementptr inbounds nuw %struct.gz_state, ptr %16, i32 0, i32 5
  %18 = load i32, ptr %17, align 4, !tbaa !27
  %19 = zext i32 %18 to i64
  %20 = call noalias ptr @malloc(i64 noundef %19) #11
  %21 = load ptr, ptr %3, align 8, !tbaa !3
  %22 = getelementptr inbounds nuw %struct.gz_state, ptr %21, i32 0, i32 7
  store ptr %20, ptr %22, align 8, !tbaa !28
  %23 = load ptr, ptr %3, align 8, !tbaa !3
  %24 = getelementptr inbounds nuw %struct.gz_state, ptr %23, i32 0, i32 6
  %25 = load ptr, ptr %24, align 8, !tbaa !22
  %26 = icmp eq ptr %25, null
  br i1 %26, label %32, label %27

27:                                               ; preds = %1
  %28 = load ptr, ptr %3, align 8, !tbaa !3
  %29 = getelementptr inbounds nuw %struct.gz_state, ptr %28, i32 0, i32 7
  %30 = load ptr, ptr %29, align 8, !tbaa !28
  %31 = icmp eq ptr %30, null
  br i1 %31, label %32, label %52

32:                                               ; preds = %27, %1
  %33 = load ptr, ptr %3, align 8, !tbaa !3
  %34 = getelementptr inbounds nuw %struct.gz_state, ptr %33, i32 0, i32 7
  %35 = load ptr, ptr %34, align 8, !tbaa !28
  %36 = icmp ne ptr %35, null
  br i1 %36, label %37, label %41

37:                                               ; preds = %32
  %38 = load ptr, ptr %3, align 8, !tbaa !3
  %39 = getelementptr inbounds nuw %struct.gz_state, ptr %38, i32 0, i32 7
  %40 = load ptr, ptr %39, align 8, !tbaa !28
  call void @free(ptr noundef %40) #10
  br label %41

41:                                               ; preds = %37, %32
  %42 = load ptr, ptr %3, align 8, !tbaa !3
  %43 = getelementptr inbounds nuw %struct.gz_state, ptr %42, i32 0, i32 6
  %44 = load ptr, ptr %43, align 8, !tbaa !22
  %45 = icmp ne ptr %44, null
  br i1 %45, label %46, label %50

46:                                               ; preds = %41
  %47 = load ptr, ptr %3, align 8, !tbaa !3
  %48 = getelementptr inbounds nuw %struct.gz_state, ptr %47, i32 0, i32 6
  %49 = load ptr, ptr %48, align 8, !tbaa !22
  call void @free(ptr noundef %49) #10
  br label %50

50:                                               ; preds = %46, %41
  %51 = load ptr, ptr %3, align 8, !tbaa !3
  call void @gz_error(ptr noundef %51, i32 noundef -4, ptr noundef @.str.1)
  store i32 -1, ptr %2, align 4
  store i32 1, ptr %6, align 4
  br label %95

52:                                               ; preds = %27
  %53 = load ptr, ptr %5, align 8, !tbaa !9
  %54 = getelementptr inbounds nuw %struct.z_stream_s, ptr %53, i32 0, i32 8
  store ptr null, ptr %54, align 8, !tbaa !29
  %55 = load ptr, ptr %5, align 8, !tbaa !9
  %56 = getelementptr inbounds nuw %struct.z_stream_s, ptr %55, i32 0, i32 9
  store ptr null, ptr %56, align 8, !tbaa !30
  %57 = load ptr, ptr %5, align 8, !tbaa !9
  %58 = getelementptr inbounds nuw %struct.z_stream_s, ptr %57, i32 0, i32 10
  store ptr null, ptr %58, align 8, !tbaa !31
  %59 = load ptr, ptr %5, align 8, !tbaa !9
  %60 = load ptr, ptr %3, align 8, !tbaa !3
  %61 = getelementptr inbounds nuw %struct.gz_state, ptr %60, i32 0, i32 15
  %62 = load i32, ptr %61, align 8, !tbaa !32
  %63 = load ptr, ptr %3, align 8, !tbaa !3
  %64 = getelementptr inbounds nuw %struct.gz_state, ptr %63, i32 0, i32 16
  %65 = load i32, ptr %64, align 4, !tbaa !33
  %66 = call i32 @deflateInit2_(ptr noundef %59, i32 noundef %62, i32 noundef 8, i32 noundef 31, i32 noundef 8, i32 noundef %65, ptr noundef @.str.2, i32 noundef 112)
  store i32 %66, ptr %4, align 4, !tbaa !7
  %67 = load i32, ptr %4, align 4, !tbaa !7
  %68 = icmp ne i32 %67, 0
  br i1 %68, label %69, label %74

69:                                               ; preds = %52
  %70 = load ptr, ptr %3, align 8, !tbaa !3
  %71 = getelementptr inbounds nuw %struct.gz_state, ptr %70, i32 0, i32 6
  %72 = load ptr, ptr %71, align 8, !tbaa !22
  call void @free(ptr noundef %72) #10
  %73 = load ptr, ptr %3, align 8, !tbaa !3
  call void @gz_error(ptr noundef %73, i32 noundef -4, ptr noundef @.str.1)
  store i32 -1, ptr %2, align 4
  store i32 1, ptr %6, align 4
  br label %95

74:                                               ; preds = %52
  %75 = load ptr, ptr %3, align 8, !tbaa !3
  %76 = getelementptr inbounds nuw %struct.gz_state, ptr %75, i32 0, i32 5
  %77 = load i32, ptr %76, align 4, !tbaa !27
  %78 = load ptr, ptr %3, align 8, !tbaa !3
  %79 = getelementptr inbounds nuw %struct.gz_state, ptr %78, i32 0, i32 4
  store i32 %77, ptr %79, align 8, !tbaa !18
  %80 = load ptr, ptr %3, align 8, !tbaa !3
  %81 = getelementptr inbounds nuw %struct.gz_state, ptr %80, i32 0, i32 4
  %82 = load i32, ptr %81, align 8, !tbaa !18
  %83 = load ptr, ptr %5, align 8, !tbaa !9
  %84 = getelementptr inbounds nuw %struct.z_stream_s, ptr %83, i32 0, i32 4
  store i32 %82, ptr %84, align 8, !tbaa !34
  %85 = load ptr, ptr %3, align 8, !tbaa !3
  %86 = getelementptr inbounds nuw %struct.gz_state, ptr %85, i32 0, i32 7
  %87 = load ptr, ptr %86, align 8, !tbaa !28
  %88 = load ptr, ptr %5, align 8, !tbaa !9
  %89 = getelementptr inbounds nuw %struct.z_stream_s, ptr %88, i32 0, i32 3
  store ptr %87, ptr %89, align 8, !tbaa !35
  %90 = load ptr, ptr %5, align 8, !tbaa !9
  %91 = getelementptr inbounds nuw %struct.z_stream_s, ptr %90, i32 0, i32 3
  %92 = load ptr, ptr %91, align 8, !tbaa !35
  %93 = load ptr, ptr %3, align 8, !tbaa !3
  %94 = getelementptr inbounds nuw %struct.gz_state, ptr %93, i32 0, i32 8
  store ptr %92, ptr %94, align 8, !tbaa !36
  store i32 0, ptr %2, align 4
  store i32 1, ptr %6, align 4
  br label %95

95:                                               ; preds = %74, %69, %50
  call void @llvm.lifetime.end.p0(i64 8, ptr %5) #10
  call void @llvm.lifetime.end.p0(i64 4, ptr %4) #10
  %96 = load i32, ptr %2, align 4
  ret i32 %96
}