; Function Attrs: nounwind uwtable
define internal fastcc range(i32 -1, 1) i32 @gz_init(ptr noundef nonnull initializes((32, 48)) %0) unnamed_addr #0 {
  %2 = getelementptr inbounds nuw i8, ptr %0, i64 28
  %3 = load i32, ptr %2, align 4, !tbaa !24
  %4 = zext i32 %3 to i64
  %5 = tail call noalias ptr @malloc(i64 noundef %4) #15
  %6 = getelementptr inbounds nuw i8, ptr %0, i64 32
  store ptr %5, ptr %6, align 8, !tbaa !20
  %7 = tail call noalias ptr @malloc(i64 noundef %4) #15
  %8 = getelementptr inbounds nuw i8, ptr %0, i64 40
  store ptr %7, ptr %8, align 8, !tbaa !25
  %9 = icmp eq ptr %5, null
  %10 = icmp eq ptr %7, null
  %or.cond = or i1 %9, %10
  br i1 %or.cond, label %11, label %16

11:                                               ; preds = %1
  br i1 %10, label %13, label %12

12:                                               ; preds = %11
  tail call void @free(ptr noundef nonnull %7) #14
  br label %13

13:                                               ; preds = %12, %11
  br i1 %9, label %15, label %14

14:                                               ; preds = %13
  tail call void @free(ptr noundef nonnull %5) #14
  br label %15

15:                                               ; preds = %14, %13
  tail call void @gz_error(ptr noundef nonnull %0, i32 noundef -4, ptr noundef nonnull @.str.1) #14
  br label %33

16:                                               ; preds = %1
  %17 = getelementptr inbounds nuw i8, ptr %0, i64 120
  %18 = getelementptr inbounds nuw i8, ptr %0, i64 184
  %19 = getelementptr inbounds nuw i8, ptr %0, i64 88
  tail call void @llvm.memset.p0.i64(ptr noundef nonnull align 8 dereferenceable(24) %18, i8 0, i64 24, i1 false)
  %20 = load i32, ptr %19, align 8, !tbaa !26
  %21 = getelementptr inbounds nuw i8, ptr %0, i64 92
  %22 = load i32, ptr %21, align 4, !tbaa !27
  %23 = tail call i32 @deflateInit2_(ptr noundef nonnull %17, i32 noundef %20, i32 noundef 8, i32 noundef 31, i32 noundef 8, i32 noundef %22, ptr noundef nonnull @.str.2, i32 noundef 112) #14
  %.not = icmp eq i32 %23, 0
  br i1 %.not, label %26, label %24

24:                                               ; preds = %16
  %25 = load ptr, ptr %6, align 8, !tbaa !20
  tail call void @free(ptr noundef %25) #14
  tail call void @gz_error(ptr noundef nonnull %0, i32 noundef -4, ptr noundef nonnull @.str.1) #14
  br label %33

26:                                               ; preds = %16
  %27 = load i32, ptr %2, align 4, !tbaa !24
  %28 = getelementptr inbounds nuw i8, ptr %0, i64 24
  store i32 %27, ptr %28, align 8, !tbaa !14
  %29 = getelementptr inbounds nuw i8, ptr %0, i64 152
  store i32 %27, ptr %29, align 8, !tbaa !28
  %30 = load ptr, ptr %8, align 8, !tbaa !25
  %31 = getelementptr inbounds nuw i8, ptr %0, i64 144
  store ptr %30, ptr %31, align 8, !tbaa !29
  %32 = getelementptr inbounds nuw i8, ptr %0, i64 48
  store ptr %30, ptr %32, align 8, !tbaa !30
  br label %33

33:                                               ; preds = %26, %24, %15
  %.0 = phi i32 [ -1, %15 ], [ -1, %24 ], [ 0, %26 ]
  ret i32 %.0
}